target datalayout = "e-m:e-p270:32:32-p271:32:32-p272:64:64-i64:64-i128:128-f80:128-n8:16:32:64-S128"
target triple = "x86_64-pc-linux-gnu"

; Function Attrs: mustprogress nounwind uwtable
define void @_ZN5faiss12pq4_pack_LUTEiiPKhPh(i32 noundef %0, i32 noundef %1, ptr noundef %2, ptr noundef %3) #0 {
  %5 = alloca i32, align 4
  %6 = alloca i32, align 4
  %7 = alloca ptr, align 8
  %8 = alloca ptr, align 8
  %9 = alloca i32, align 4
  %10 = alloca i32, align 4
  %11 = alloca i32, align 4
  store i32 %0, ptr %5, align 4, !tbaa !25
  store i32 %1, ptr %6, align 4, !tbaa !25
  store ptr %2, ptr %7, align 8, !tbaa !9
  store ptr %3, ptr %8, align 8, !tbaa !9
  call void @llvm.lifetime.start.p0(i64 4, ptr %9) #6
  store i32 0, ptr %9, align 4, !tbaa !25
  br label %12

12:                                               ; preds = %68, %4
  %13 = load i32, ptr %9, align 4, !tbaa !25
  %14 = load i32, ptr %5, align 4, !tbaa !25
  %15 = icmp slt i32 %13, %14
  br i1 %15, label %17, label %16

16:                                               ; preds = %12
  store i32 2, ptr %10, align 4
  call void @llvm.lifetime.end.p0(i64 4, ptr %9) #6
  br label %71

17:                                               ; preds = %12
  call void @llvm.lifetime.start.p0(i64 4, ptr %11) #6
  store i32 0, ptr %11, align 4, !tbaa !25
  br label %18

18:                                               ; preds = %64, %17
  %19 = load i32, ptr %11, align 4, !tbaa !25
  %20 = load i32, ptr %6, align 4, !tbaa !25
  %21 = icmp slt i32 %19, %20
  br i1 %21, label %23, label %22

22:                                               ; preds = %18
  store i32 5, ptr %10, align 4
  call void @llvm.lifetime.end.p0(i64 4, ptr %11) #6
  br label %67

23:                                               ; preds = %18
  %24 = load ptr, ptr %8, align 8, !tbaa !9
  %25 = load i32, ptr %11, align 4, !tbaa !25
  %26 = sdiv i32 %25, 2
  %27 = load i32, ptr %5, align 4, !tbaa !25
  %28 = mul nsw i32 %26, %27
  %29 = load i32, ptr %9, align 4, !tbaa !25
  %30 = add nsw i32 %28, %29
  %31 = mul nsw i32 %30, 32
  %32 = sext i32 %31 to i64
  %33 = getelementptr inbounds i8, ptr %24, i64 %32
  %34 = load ptr, ptr %7, align 8, !tbaa !9
  %35 = load i32, ptr %9, align 4, !tbaa !25
  %36 = load i32, ptr %6, align 4, !tbaa !25
  %37 = mul nsw i32 %35, %36
  %38 = load i32, ptr %11, align 4, !tbaa !25
  %39 = add nsw i32 %37, %38
  %40 = mul nsw i32 %39, 16
  %41 = sext i32 %40 to i64
  %42 = getelementptr inbounds i8, ptr %34, i64 %41
  call void @llvm.memcpy.p0.p0.i64(ptr align 1 %33, ptr align 1 %42, i64 16, i1 false)
  %43 = load ptr, ptr %8, align 8, !tbaa !9
  %44 = load i32, ptr %11, align 4, !tbaa !25
  %45 = sdiv i32 %44, 2
  %46 = load i32, ptr %5, align 4, !tbaa !25
  %47 = mul nsw i32 %45, %46
  %48 = load i32, ptr %9, align 4, !tbaa !25
  %49 = add nsw i32 %47, %48
  %50 = mul nsw i32 %49, 32
  %51 = sext i32 %50 to i64
  %52 = getelementptr inbounds i8, ptr %43, i64 %51
  %53 = getelementptr inbounds i8, ptr %52, i64 16
  %54 = load ptr, ptr %7, align 8, !tbaa !9
  %55 = load i32, ptr %9, align 4, !tbaa !25
  %56 = load i32, ptr %6, align 4, !tbaa !25
  %57 = mul nsw i32 %55, %56
  %58 = load i32, ptr %11, align 4, !tbaa !25
  %59 = add nsw i32 %57, %58
  %60 = add nsw i32 %59, 1
  %61 = mul nsw i32 %60, 16
  %62 = sext i32 %61 to i64
  %63 = getelementptr inbounds i8, ptr %54, i64 %62
  call void @llvm.memcpy.p0.p0.i64(ptr align 1 %53, ptr align 1 %63, i64 16, i1 false)
  br label %64

64:                                               ; preds = %23
  %65 = load i32, ptr %11, align 4, !tbaa !25
  %66 = add nsw i32 %65, 2
  store i32 %66, ptr %11, align 4, !tbaa !25
  br label %18, !llvm.loop !63

67:                                               ; preds = %22
  br label %68

68:                                               ; preds = %67
  %69 = load i32, ptr %9, align 4, !tbaa !25
  %70 = add nsw i32 %69, 1
  store i32 %70, ptr %9, align 4, !tbaa !25
  br label %12, !llvm.loop !64

71:                                               ; preds = %16
  ret void
}